target datalayout = "e-m:e-p270:32:32-p271:32:32-p272:64:64-i64:64-i128:128-f80:128-n8:16:32:64-S128"
target triple = "x86_64-pc-linux-gnu"

%struct.CodedBitstreamType = type { i32, ptr, i64, ptr, ptr, ptr, ptr, ptr, ptr, ptr, ptr }
%struct.CodedBitstreamContext = type { ptr, ptr, ptr, ptr, i32, i32, i32, ptr, ptr, ptr, ptr, i64 }
%struct.CodedBitstreamUnit = type { i32, ptr, i64, i64, ptr, ptr, ptr }
%struct.CodedBitstreamUnitTypeDescriptor = type { i32, %union.anon.1, i32, i64, %union.anon.2 }
%union.anon.1 = type { [3 x i32] }
%union.anon.2 = type { %struct.anon.3 }
%struct.anon.3 = type { i32, [2 x i64] }
%struct.anon = type { i32, i32 }
%union.AVRefStructOpaque = type { ptr }
%struct.anon.4 = type { ptr, ptr }

@.str.1 = private unnamed_addr constant [30 x i8] c"Assertion %s failed at %s:%d\0A\00", align 1
@.str.3 = private unnamed_addr constant [17 x i8] c"libavcodec/cbs.c\00", align 1
@.str.24 = private unnamed_addr constant [37 x i8] c"!unit->content && !unit->content_ref\00", align 1

; Function Attrs: nounwind uwtable
define internal ptr @cbs_alloc_content(ptr noundef %0) #3 {
  %2 = alloca ptr, align 8
  %3 = alloca %union.AVRefStructOpaque, align 8
  store ptr %0, ptr %2, align 8, !tbaa !124
  %4 = load ptr, ptr %2, align 8, !tbaa !124
  %5 = getelementptr inbounds nuw %struct.CodedBitstreamUnitTypeDescriptor, ptr %4, i32 0, i32 3
  %6 = load i64, ptr %5, align 8, !tbaa !129
  %7 = load ptr, ptr %2, align 8, !tbaa !124
  store ptr %7, ptr %3, align 8, !tbaa !99
  %8 = load ptr, ptr %2, align 8, !tbaa !124
  %9 = getelementptr inbounds nuw %struct.CodedBitstreamUnitTypeDescriptor, ptr %8, i32 0, i32 2
  %10 = load i32, ptr %9, align 8, !tbaa !130
  %11 = icmp eq i32 %10, 1
  br i1 %11, label %12, label %17

12:                                               ; preds = %1
  %13 = load ptr, ptr %2, align 8, !tbaa !124
  %14 = getelementptr inbounds nuw %struct.CodedBitstreamUnitTypeDescriptor, ptr %13, i32 0, i32 4
  %15 = getelementptr inbounds nuw %struct.anon.4, ptr %14, i32 0, i32 0
  %16 = load ptr, ptr %15, align 8, !tbaa !99
  br label %18

17:                                               ; preds = %1
  br label %18

18:                                               ; preds = %17, %12
  %19 = phi ptr [ %16, %12 ], [ @cbs_default_free_unit_content, %17 ]
  %20 = getelementptr inbounds nuw %union.AVRefStructOpaque, ptr %3, i32 0, i32 0
  %21 = load ptr, ptr %20, align 8
  %22 = call ptr @av_refstruct_alloc_ext_c(i64 noundef %6, i32 noundef 0, ptr %21, ptr noundef %19)
  ret ptr %22
}

; Function Attrs: nounwind uwtable
define internal ptr @cbs_find_unit_type_desc(ptr noundef %0, ptr noundef %1) #3 {
  %3 = alloca ptr, align 8
  %4 = alloca ptr, align 8
  %5 = alloca ptr, align 8
  %6 = alloca ptr, align 8
  %7 = alloca i32, align 4
  %8 = alloca i32, align 4
  %9 = alloca i32, align 4
  store ptr %0, ptr %4, align 8, !tbaa !22
  store ptr %1, ptr %5, align 8, !tbaa !50
  call void @llvm.lifetime.start.p0(i64 8, ptr %6) #13
  call void @llvm.lifetime.start.p0(i64 4, ptr %7) #13
  call void @llvm.lifetime.start.p0(i64 4, ptr %8) #13
  %10 = load ptr, ptr %4, align 8, !tbaa !22
  %11 = getelementptr inbounds nuw %struct.CodedBitstreamContext, ptr %10, i32 0, i32 1
  %12 = load ptr, ptr %11, align 8, !tbaa !28
  %13 = getelementptr inbounds nuw %struct.CodedBitstreamType, ptr %12, i32 0, i32 3
  %14 = load ptr, ptr %13, align 8, !tbaa !125
  %15 = icmp ne ptr %14, null
  br i1 %15, label %17, label %16

16:                                               ; preds = %2
  store ptr null, ptr %3, align 8
  store i32 1, ptr %9, align 4
  br label %88

17:                                               ; preds = %2
  store i32 0, ptr %7, align 4, !tbaa !10
  br label %18

18:                                               ; preds = %84, %17
  %19 = load ptr, ptr %4, align 8, !tbaa !22
  %20 = getelementptr inbounds nuw %struct.CodedBitstreamContext, ptr %19, i32 0, i32 1
  %21 = load ptr, ptr %20, align 8, !tbaa !28
  %22 = getelementptr inbounds nuw %struct.CodedBitstreamType, ptr %21, i32 0, i32 3
  %23 = load ptr, ptr %22, align 8, !tbaa !125
  %24 = load i32, ptr %7, align 4, !tbaa !10
  %25 = sext i32 %24 to i64
  %26 = getelementptr inbounds %struct.CodedBitstreamUnitTypeDescriptor, ptr %23, i64 %25
  store ptr %26, ptr %6, align 8, !tbaa !124
  %27 = load ptr, ptr %6, align 8, !tbaa !124
  %28 = getelementptr inbounds nuw %struct.CodedBitstreamUnitTypeDescriptor, ptr %27, i32 0, i32 0
  %29 = load i32, ptr %28, align 8, !tbaa !126
  %30 = icmp eq i32 %29, 0
  br i1 %30, label %31, label %32

31:                                               ; preds = %18
  br label %87

32:                                               ; preds = %18
  %33 = load ptr, ptr %6, align 8, !tbaa !124
  %34 = getelementptr inbounds nuw %struct.CodedBitstreamUnitTypeDescriptor, ptr %33, i32 0, i32 0
  %35 = load i32, ptr %34, align 8, !tbaa !126
  %36 = icmp eq i32 %35, -1
  br i1 %36, label %37, label %58

37:                                               ; preds = %32
  %38 = load ptr, ptr %5, align 8, !tbaa !50
  %39 = getelementptr inbounds nuw %struct.CodedBitstreamUnit, ptr %38, i32 0, i32 0
  %40 = load i32, ptr %39, align 8, !tbaa !89
  %41 = load ptr, ptr %6, align 8, !tbaa !124
  %42 = getelementptr inbounds nuw %struct.CodedBitstreamUnitTypeDescriptor, ptr %41, i32 0, i32 1
  %43 = getelementptr inbounds nuw %struct.anon, ptr %42, i32 0, i32 0
  %44 = load i32, ptr %43, align 4, !tbaa !99
  %45 = icmp uge i32 %40, %44
  br i1 %45, label %46, label %57

46:                                               ; preds = %37
  %47 = load ptr, ptr %5, align 8, !tbaa !50
  %48 = getelementptr inbounds nuw %struct.CodedBitstreamUnit, ptr %47, i32 0, i32 0
  %49 = load i32, ptr %48, align 8, !tbaa !89
  %50 = load ptr, ptr %6, align 8, !tbaa !124
  %51 = getelementptr inbounds nuw %struct.CodedBitstreamUnitTypeDescriptor, ptr %50, i32 0, i32 1
  %52 = getelementptr inbounds nuw %struct.anon, ptr %51, i32 0, i32 1
  %53 = load i32, ptr %52, align 4, !tbaa !99
  %54 = icmp ule i32 %49, %53
  br i1 %54, label %55, label %57

55:                                               ; preds = %46
  %56 = load ptr, ptr %6, align 8, !tbaa !124
  store ptr %56, ptr %3, align 8
  store i32 1, ptr %9, align 4
  br label %88

57:                                               ; preds = %46, %37
  br label %83

58:                                               ; preds = %32
  store i32 0, ptr %8, align 4, !tbaa !10
  br label %59

59:                                               ; preds = %79, %58
  %60 = load i32, ptr %8, align 4, !tbaa !10
  %61 = load ptr, ptr %6, align 8, !tbaa !124
  %62 = getelementptr inbounds nuw %struct.CodedBitstreamUnitTypeDescriptor, ptr %61, i32 0, i32 0
  %63 = load i32, ptr %62, align 8, !tbaa !126
  %64 = icmp slt i32 %60, %63
  br i1 %64, label %65, label %82

65:                                               ; preds = %59
  %66 = load ptr, ptr %6, align 8, !tbaa !124
  %67 = getelementptr inbounds nuw %struct.CodedBitstreamUnitTypeDescriptor, ptr %66, i32 0, i32 1
  %68 = load i32, ptr %8, align 4, !tbaa !10
  %69 = sext i32 %68 to i64
  %70 = getelementptr inbounds [3 x i32], ptr %67, i64 0, i64 %69
  %71 = load i32, ptr %70, align 4, !tbaa !99
  %72 = load ptr, ptr %5, align 8, !tbaa !50
  %73 = getelementptr inbounds nuw %struct.CodedBitstreamUnit, ptr %72, i32 0, i32 0
  %74 = load i32, ptr %73, align 8, !tbaa !89
  %75 = icmp eq i32 %71, %74
  br i1 %75, label %76, label %78

76:                                               ; preds = %65
  %77 = load ptr, ptr %6, align 8, !tbaa !124
  store ptr %77, ptr %3, align 8
  store i32 1, ptr %9, align 4
  br label %88

78:                                               ; preds = %65
  br label %79

79:                                               ; preds = %78
  %80 = load i32, ptr %8, align 4, !tbaa !10
  %81 = add nsw i32 %80, 1
  store i32 %81, ptr %8, align 4, !tbaa !10
  br label %59, !llvm.loop !128

82:                                               ; preds = %59
  br label %83

83:                                               ; preds = %82, %57
  br label %84

84:                                               ; preds = %83
  %85 = load i32, ptr %7, align 4, !tbaa !10
  %86 = add nsw i32 %85, 1
  store i32 %86, ptr %7, align 4, !tbaa !10
  br label %18

87:                                               ; preds = %31
  store ptr null, ptr %3, align 8
  store i32 1, ptr %9, align 4
  br label %88

88:                                               ; preds = %87, %76, %55, %16
  call void @llvm.lifetime.end.p0(i64 4, ptr %8) #13
  call void @llvm.lifetime.end.p0(i64 4, ptr %7) #13
  call void @llvm.lifetime.end.p0(i64 8, ptr %6) #13
  %89 = load ptr, ptr %3, align 8
  ret ptr %89
}

; Function Attrs: nounwind uwtable
define i32 @ff_cbs_alloc_unit_content(ptr noundef %0, ptr noundef %1) #3 {
  %3 = alloca i32, align 4
  %4 = alloca ptr, align 8
  %5 = alloca ptr, align 8
  %6 = alloca ptr, align 8
  %7 = alloca i32, align 4
  store ptr %0, ptr %4, align 8, !tbaa !22
  store ptr %1, ptr %5, align 8, !tbaa !50
  call void @llvm.lifetime.start.p0(i64 8, ptr %6) #13
  br label %8

8:                                                ; preds = %2
  %9 = load ptr, ptr %5, align 8, !tbaa !50
  %10 = getelementptr inbounds nuw %struct.CodedBitstreamUnit, ptr %9, i32 0, i32 5
  %11 = load ptr, ptr %10, align 8, !tbaa !51
  %12 = icmp ne ptr %11, null
  br i1 %12, label %18, label %13

13:                                               ; preds = %8
  %14 = load ptr, ptr %5, align 8, !tbaa !50
  %15 = getelementptr inbounds nuw %struct.CodedBitstreamUnit, ptr %14, i32 0, i32 6
  %16 = load ptr, ptr %15, align 8, !tbaa !123
  %17 = icmp ne ptr %16, null
  br i1 %17, label %18, label %19

18:                                               ; preds = %13, %8
  call void (ptr, i32, ptr, ...) @av_log(ptr noundef null, i32 noundef 0, ptr noundef @.str.1, ptr noundef @.str.24, ptr noundef @.str.3, i32 noundef 943)
  call void @abort() #14
  unreachable

19:                                               ; preds = %13
  br label %20

20:                                               ; preds = %19
  br label %21

21:                                               ; preds = %20
  %22 = load ptr, ptr %4, align 8, !tbaa !22
  %23 = load ptr, ptr %5, align 8, !tbaa !50
  %24 = call ptr @cbs_find_unit_type_desc(ptr noundef %22, ptr noundef %23)
  store ptr %24, ptr %6, align 8, !tbaa !124
  %25 = load ptr, ptr %6, align 8, !tbaa !124
  %26 = icmp ne ptr %25, null
  br i1 %26, label %28, label %27

27:                                               ; preds = %21
  store i32 -38, ptr %3, align 4
  store i32 1, ptr %7, align 4
  br label %44

28:                                               ; preds = %21
  %29 = load ptr, ptr %6, align 8, !tbaa !124
  %30 = call ptr @cbs_alloc_content(ptr noundef %29)
  %31 = load ptr, ptr %5, align 8, !tbaa !50
  %32 = getelementptr inbounds nuw %struct.CodedBitstreamUnit, ptr %31, i32 0, i32 6
  store ptr %30, ptr %32, align 8, !tbaa !123
  %33 = load ptr, ptr %5, align 8, !tbaa !50
  %34 = getelementptr inbounds nuw %struct.CodedBitstreamUnit, ptr %33, i32 0, i32 6
  %35 = load ptr, ptr %34, align 8, !tbaa !123
  %36 = icmp ne ptr %35, null
  br i1 %36, label %38, label %37

37:                                               ; preds = %28
  store i32 -12, ptr %3, align 4
  store i32 1, ptr %7, align 4
  br label %44

38:                                               ; preds = %28
  %39 = load ptr, ptr %5, align 8, !tbaa !50
  %40 = getelementptr inbounds nuw %struct.CodedBitstreamUnit, ptr %39, i32 0, i32 6
  %41 = load ptr, ptr %40, align 8, !tbaa !123
  %42 = load ptr, ptr %5, align 8, !tbaa !50
  %43 = getelementptr inbounds nuw %struct.CodedBitstreamUnit, ptr %42, i32 0, i32 5
  store ptr %41, ptr %43, align 8, !tbaa !51
  store i32 0, ptr %3, align 4
  store i32 1, ptr %7, align 4
  br label %44

44:                                               ; preds = %38, %37, %27
  call void @llvm.lifetime.end.p0(i64 8, ptr %6) #13
  %45 = load i32, ptr %3, align 4
  ret i32 %45
}