; Function Attrs: nounwind uwtable
define range(i32 -38, 1) i32 @ff_cbs_alloc_unit_content(ptr noundef readonly captures(none) %0, ptr noundef captures(none) %1) local_unnamed_addr #3 {
  %3 = getelementptr inbounds nuw i8, ptr %1, i64 40
  %4 = load ptr, ptr %3, align 8, !tbaa !39
  %.not = icmp eq ptr %4, null
  br i1 %.not, label %5, label %8

5:                                                ; preds = %2
  %6 = getelementptr inbounds nuw i8, ptr %1, i64 48
  %7 = load ptr, ptr %6, align 8, !tbaa !109
  %.not12 = icmp eq ptr %7, null
  br i1 %.not12, label %9, label %8

8:                                                ; preds = %5, %2
  tail call void (ptr, i32, ptr, ...) @av_log(ptr noundef null, i32 noundef 0, ptr noundef nonnull @.str.1, ptr noundef nonnull @.str.24, ptr noundef nonnull @.str.3, i32 noundef 943) #10
  tail call void @abort() #11
  unreachable

9:                                                ; preds = %5
  %10 = getelementptr i8, ptr %0, i64 8
  %.val = load ptr, ptr %10, align 8, !tbaa !23
  %11 = getelementptr i8, ptr %.val, i64 24
  %.val.val = load ptr, ptr %11, align 8, !tbaa !111
  %.not.i = icmp eq ptr %.val.val, null
  br i1 %.not.i, label %cbs_find_unit_type_desc.exit.thread, label %.preheader2.i

.preheader2.i:                                    ; preds = %9, %.loopexit.i
  %indvars.iv9.i = phi i64 [ %indvars.iv.next10.i, %.loopexit.i ], [ 0, %9 ]
  %12 = getelementptr inbounds nuw %struct.CodedBitstreamUnitTypeDescriptor, ptr %.val.val, i64 %indvars.iv9.i
  %13 = load i32, ptr %12, align 8, !tbaa !112
  switch i32 %13, label %.preheader.i [
    i32 0, label %cbs_find_unit_type_desc.exit.thread
    i32 -1, label %17
  ]

.preheader.i:                                     ; preds = %.preheader2.i
  %14 = icmp sgt i32 %13, 0
  br i1 %14, label %.lr.ph.i, label %.loopexit.i

.lr.ph.i:                                         ; preds = %.preheader.i
  %15 = getelementptr inbounds nuw i8, ptr %12, i64 4
  %16 = load i32, ptr %1, align 8, !tbaa !57
  %wide.trip.count.i = zext nneg i32 %13 to i64
  br label %25

17:                                               ; preds = %.preheader2.i
  %18 = load i32, ptr %1, align 8, !tbaa !57
  %19 = getelementptr inbounds nuw i8, ptr %12, i64 4
  %20 = load i32, ptr %19, align 4, !tbaa !91
  %.not22.i = icmp ult i32 %18, %20
  br i1 %.not22.i, label %.loopexit.i, label %21

21:                                               ; preds = %17
  %22 = getelementptr inbounds nuw i8, ptr %12, i64 8
  %23 = load i32, ptr %22, align 4, !tbaa !91
  %.not23.i = icmp ugt i32 %18, %23
  br i1 %.not23.i, label %.loopexit.i, label %cbs_find_unit_type_desc.exit

24:                                               ; preds = %25
  %indvars.iv.next.i = add nuw nsw i64 %indvars.iv.i, 1
  %exitcond.not.i = icmp eq i64 %indvars.iv.next.i, %wide.trip.count.i
  br i1 %exitcond.not.i, label %.loopexit.i, label %25, !llvm.loop !114

25:                                               ; preds = %24, %.lr.ph.i
  %indvars.iv.i = phi i64 [ 0, %.lr.ph.i ], [ %indvars.iv.next.i, %24 ]
  %26 = getelementptr inbounds nuw [3 x i32], ptr %15, i64 0, i64 %indvars.iv.i
  %27 = load i32, ptr %26, align 4, !tbaa !91
  %28 = icmp eq i32 %27, %16
  br i1 %28, label %cbs_find_unit_type_desc.exit, label %24

.loopexit.i:                                      ; preds = %24, %21, %17, %.preheader.i
  %indvars.iv.next10.i = add nuw nsw i64 %indvars.iv9.i, 1
  br label %.preheader2.i

cbs_find_unit_type_desc.exit:                     ; preds = %21, %25
  %29 = getelementptr inbounds nuw i8, ptr %12, i64 24
  %30 = load i64, ptr %29, align 8, !tbaa !115
  %31 = getelementptr inbounds nuw i8, ptr %12, i64 16
  %32 = load i32, ptr %31, align 8, !tbaa !116
  %33 = icmp eq i32 %32, 1
  br i1 %33, label %34, label %cbs_alloc_content.exit

34:                                               ; preds = %cbs_find_unit_type_desc.exit
  %35 = getelementptr inbounds nuw i8, ptr %12, i64 32
  %36 = load ptr, ptr %35, align 8, !tbaa !91
  br label %cbs_alloc_content.exit

cbs_alloc_content.exit:                           ; preds = %cbs_find_unit_type_desc.exit, %34
  %37 = phi ptr [ %36, %34 ], [ @cbs_default_free_unit_content, %cbs_find_unit_type_desc.exit ]
  %38 = tail call ptr @av_refstruct_alloc_ext_c(i64 noundef %30, i32 noundef 0, ptr nonnull %12, ptr noundef %37) #10
  store ptr %38, ptr %6, align 8, !tbaa !109
  %.not14 = icmp eq ptr %38, null
  br i1 %.not14, label %cbs_find_unit_type_desc.exit.thread, label %39

39:                                               ; preds = %cbs_alloc_content.exit
  store ptr %38, ptr %3, align 8, !tbaa !39
  br label %cbs_find_unit_type_desc.exit.thread

cbs_find_unit_type_desc.exit.thread:              ; preds = %.preheader2.i, %9, %cbs_alloc_content.exit, %39
  %.0 = phi i32 [ 0, %39 ], [ -12, %cbs_alloc_content.exit ], [ -38, %9 ], [ -38, %.preheader2.i ]
  ret i32 %.0
}